; Function Attrs: mustprogress uwtable
define hidden void @_ZN4cvc58internal6theory5arith6linear14ArithVariables8setDeltaERKNS0_8RationalE(ptr noundef nonnull align 8 dereferenceable(568) %this, ptr noundef nonnull align 8 dereferenceable(32) %d) local_unnamed_addr #3 align 2 {
entry:
  %d_delta = getelementptr inbounds i8, ptr %this, i64 520
  %cmp.i = icmp eq ptr %d_delta, %d
  br i1 %cmp.i, label %_ZN4cvc58internal8RationalaSERKS1_.exit, label %if.end.i

if.end.i:                                         ; preds = %entry
  tail call void @__gmpq_set(ptr noundef nonnull %d_delta, ptr noundef nonnull %d)
  br label %_ZN4cvc58internal8RationalaSERKS1_.exit

_ZN4cvc58internal8RationalaSERKS1_.exit:          ; preds = %entry, %if.end.i
  %d_deltaIsSafe = getelementptr inbounds i8, ptr %this, i64 512
  store i8 1, ptr %d_deltaIsSafe, align 8
  ret void
}